target datalayout = "e-m:e-p270:32:32-p271:32:32-p272:64:64-i64:64-i128:128-f80:128-n8:16:32:64-S128"
target triple = "x86_64-pc-linux-gnu"

%"class.glslang::TPoolAllocator" = type { i64, i64, i64, i64, i64, ptr, ptr, %"class.std::vector", i32, i64 }
%"class.std::vector" = type { %"struct.std::_Vector_base" }
%"struct.std::_Vector_base" = type { %"struct.std::_Vector_base<glslang::TPoolAllocator::tAllocState, std::allocator<glslang::TPoolAllocator::tAllocState>>::_Vector_impl" }
%"struct.std::_Vector_base<glslang::TPoolAllocator::tAllocState, std::allocator<glslang::TPoolAllocator::tAllocState>>::_Vector_impl" = type { %"struct.std::_Vector_base<glslang::TPoolAllocator::tAllocState, std::allocator<glslang::TPoolAllocator::tAllocState>>::_Vector_impl_data" }
%"struct.std::_Vector_base<glslang::TPoolAllocator::tAllocState, std::allocator<glslang::TPoolAllocator::tAllocState>>::_Vector_impl_data" = type { ptr, ptr, ptr }
%"struct.glslang::TPoolAllocator::tHeader" = type { ptr, i64 }

; Function Attrs: mustprogress nounwind uwtable
define linkonce_odr noundef ptr @_ZN7glslang11TAllocation16offsetAllocationEPh(ptr noundef %0) #0 comdat align 2 {
  %2 = alloca ptr, align 8
  store ptr %0, ptr %2, align 8
  %3 = load ptr, ptr %2, align 8
  %4 = getelementptr inbounds i8, ptr %3, i64 0
  %5 = call noundef i64 @_ZN7glslang11TAllocation10headerSizeEv()
  %6 = getelementptr inbounds i8, ptr %4, i64 %5
  ret ptr %6
}

; Function Attrs: mustprogress nounwind uwtable
define linkonce_odr noundef i64 @_ZN7glslang11TAllocation10headerSizeEv() #0 comdat align 2 {
  ret i64 0
}

; Function Attrs: mustprogress nounwind uwtable
define linkonce_odr void @_ZN7glslang14TPoolAllocator7tHeaderC2EPS1_m(ptr noundef nonnull align 8 dereferenceable(16) %0, ptr noundef %1, i64 noundef %2) unnamed_addr #0 comdat align 2 {
  %4 = alloca ptr, align 8
  %5 = alloca ptr, align 8
  %6 = alloca i64, align 8
  store ptr %0, ptr %4, align 8
  store ptr %1, ptr %5, align 8
  store i64 %2, ptr %6, align 8
  %7 = load ptr, ptr %4, align 8
  %8 = getelementptr inbounds %"struct.glslang::TPoolAllocator::tHeader", ptr %7, i32 0, i32 0
  %9 = load ptr, ptr %5, align 8
  store ptr %9, ptr %8, align 8
  %10 = getelementptr inbounds %"struct.glslang::TPoolAllocator::tHeader", ptr %7, i32 0, i32 1
  %11 = load i64, ptr %6, align 8
  store i64 %11, ptr %10, align 8
  ret void
}

; Function Attrs: mustprogress nounwind uwtable
define linkonce_odr noundef ptr @_ZN7glslang14TPoolAllocator20initializeAllocationEPNS0_7tHeaderEPhm(ptr noundef nonnull align 8 dereferenceable(96) %0, ptr noundef %1, ptr noundef %2, i64 noundef %3) #0 comdat align 2 {
  %5 = alloca ptr, align 8
  %6 = alloca ptr, align 8
  %7 = alloca ptr, align 8
  %8 = alloca i64, align 8
  store ptr %0, ptr %5, align 8
  store ptr %1, ptr %6, align 8
  store ptr %2, ptr %7, align 8
  store i64 %3, ptr %8, align 8
  %9 = load ptr, ptr %7, align 8
  %10 = call noundef ptr @_ZN7glslang11TAllocation16offsetAllocationEPh(ptr noundef %9)
  ret ptr %10
}

; Function Attrs: mustprogress nounwind uwtable
define linkonce_odr noundef i64 @_ZN7glslang11TAllocation14allocationSizeEm(i64 noundef %0) #0 comdat align 2 {
  %2 = alloca i64, align 8
  store i64 %0, ptr %2, align 8
  %3 = load i64, ptr %2, align 8
  %4 = add i64 %3, 0
  %5 = call noundef i64 @_ZN7glslang11TAllocation10headerSizeEv()
  %6 = add i64 %4, %5
  ret i64 %6
}

; Function Attrs: mustprogress nounwind uwtable
define noundef ptr @_ZN7glslang14TPoolAllocator8allocateEm(ptr noundef nonnull align 8 dereferenceable(96) %0, i64 noundef %1) #0 align 2 {
  %3 = alloca ptr, align 8
  %4 = alloca ptr, align 8
  %5 = alloca i64, align 8
  %6 = alloca i64, align 8
  %7 = alloca ptr, align 8
  %8 = alloca i64, align 8
  %9 = alloca ptr, align 8
  %10 = alloca ptr, align 8
  %11 = alloca ptr, align 8
  store ptr %0, ptr %4, align 8
  store i64 %1, ptr %5, align 8
  %12 = load ptr, ptr %4, align 8
  %13 = load i64, ptr %5, align 8
  %14 = call noundef i64 @_ZN7glslang11TAllocation14allocationSizeEm(i64 noundef %13)
  store i64 %14, ptr %6, align 8
  %15 = getelementptr inbounds %"class.glslang::TPoolAllocator", ptr %12, i32 0, i32 8
  %16 = load i32, ptr %15, align 8
  %17 = add nsw i32 %16, 1
  store i32 %17, ptr %15, align 8
  %18 = load i64, ptr %5, align 8
  %19 = getelementptr inbounds %"class.glslang::TPoolAllocator", ptr %12, i32 0, i32 9
  %20 = load i64, ptr %19, align 8
  %21 = add i64 %20, %18
  store i64 %21, ptr %19, align 8
  %22 = getelementptr inbounds %"class.glslang::TPoolAllocator", ptr %12, i32 0, i32 4
  %23 = load i64, ptr %22, align 8
  %24 = load i64, ptr %6, align 8
  %25 = add i64 %23, %24
  %26 = getelementptr inbounds %"class.glslang::TPoolAllocator", ptr %12, i32 0, i32 0
  %27 = load i64, ptr %26, align 8
  %28 = icmp ule i64 %25, %27
  br i1 %28, label %29, label %54

29:                                               ; preds = %2
  %30 = getelementptr inbounds %"class.glslang::TPoolAllocator", ptr %12, i32 0, i32 6
  %31 = load ptr, ptr %30, align 8
  %32 = getelementptr inbounds %"class.glslang::TPoolAllocator", ptr %12, i32 0, i32 4
  %33 = load i64, ptr %32, align 8
  %34 = getelementptr inbounds i8, ptr %31, i64 %33
  store ptr %34, ptr %7, align 8
  %35 = load i64, ptr %6, align 8
  %36 = getelementptr inbounds %"class.glslang::TPoolAllocator", ptr %12, i32 0, i32 4
  %37 = load i64, ptr %36, align 8
  %38 = add i64 %37, %35
  store i64 %38, ptr %36, align 8
  %39 = getelementptr inbounds %"class.glslang::TPoolAllocator", ptr %12, i32 0, i32 4
  %40 = load i64, ptr %39, align 8
  %41 = getelementptr inbounds %"class.glslang::TPoolAllocator", ptr %12, i32 0, i32 2
  %42 = load i64, ptr %41, align 8
  %43 = add i64 %40, %42
  %44 = getelementptr inbounds %"class.glslang::TPoolAllocator", ptr %12, i32 0, i32 2
  %45 = load i64, ptr %44, align 8
  %46 = xor i64 %45, -1
  %47 = and i64 %43, %46
  %48 = getelementptr inbounds %"class.glslang::TPoolAllocator", ptr %12, i32 0, i32 4
  store i64 %47, ptr %48, align 8
  %49 = getelementptr inbounds %"class.glslang::TPoolAllocator", ptr %12, i32 0, i32 6
  %50 = load ptr, ptr %49, align 8
  %51 = load ptr, ptr %7, align 8
  %52 = load i64, ptr %5, align 8
  %53 = call noundef ptr @_ZN7glslang14TPoolAllocator20initializeAllocationEPNS0_7tHeaderEPhm(ptr noundef nonnull align 8 dereferenceable(96) %12, ptr noundef %50, ptr noundef %51, i64 noundef %52)
  store ptr %53, ptr %3, align 8
  br label %143

54:                                               ; preds = %2
  %55 = load i64, ptr %6, align 8
  %56 = getelementptr inbounds %"class.glslang::TPoolAllocator", ptr %12, i32 0, i32 3
  %57 = load i64, ptr %56, align 8
  %58 = add i64 %55, %57
  %59 = getelementptr inbounds %"class.glslang::TPoolAllocator", ptr %12, i32 0, i32 0
  %60 = load i64, ptr %59, align 8
  %61 = icmp ugt i64 %58, %60
  br i1 %61, label %62, label %95

62:                                               ; preds = %54
  %63 = load i64, ptr %6, align 8
  %64 = getelementptr inbounds %"class.glslang::TPoolAllocator", ptr %12, i32 0, i32 3
  %65 = load i64, ptr %64, align 8
  %66 = add i64 %63, %65
  store i64 %66, ptr %8, align 8
  %67 = load i64, ptr %8, align 8
  %68 = call noalias noundef nonnull ptr @_Znam(i64 noundef %67) #8
  store ptr %68, ptr %9, align 8
  %69 = load ptr, ptr %9, align 8
  %70 = icmp eq ptr %69, null
  br i1 %70, label %71, label %72

71:                                               ; preds = %62
  store ptr null, ptr %3, align 8
  br label %143

72:                                               ; preds = %62
  %73 = load ptr, ptr %9, align 8
  %74 = getelementptr inbounds %"class.glslang::TPoolAllocator", ptr %12, i32 0, i32 6
  %75 = load ptr, ptr %74, align 8
  %76 = load i64, ptr %8, align 8
  %77 = getelementptr inbounds %"class.glslang::TPoolAllocator", ptr %12, i32 0, i32 0
  %78 = load i64, ptr %77, align 8
  %79 = add i64 %76, %78
  %80 = sub i64 %79, 1
  %81 = getelementptr inbounds %"class.glslang::TPoolAllocator", ptr %12, i32 0, i32 0
  %82 = load i64, ptr %81, align 8
  %83 = udiv i64 %80, %82
  call void @_ZN7glslang14TPoolAllocator7tHeaderC2EPS1_m(ptr noundef nonnull align 8 dereferenceable(16) %73, ptr noundef %75, i64 noundef %83)
  %84 = load ptr, ptr %9, align 8
  %85 = getelementptr inbounds %"class.glslang::TPoolAllocator", ptr %12, i32 0, i32 6
  store ptr %84, ptr %85, align 8
  %86 = getelementptr inbounds %"class.glslang::TPoolAllocator", ptr %12, i32 0, i32 0
  %87 = load i64, ptr %86, align 8
  %88 = getelementptr inbounds %"class.glslang::TPoolAllocator", ptr %12, i32 0, i32 4
  store i64 %87, ptr %88, align 8
  %89 = load ptr, ptr %9, align 8
  %90 = ptrtoint ptr %89 to i64
  %91 = getelementptr inbounds %"class.glslang::TPoolAllocator", ptr %12, i32 0, i32 3
  %92 = load i64, ptr %91, align 8
  %93 = add i64 %90, %92
  %94 = inttoptr i64 %93 to ptr
  store ptr %94, ptr %3, align 8
  br label %143

95:                                               ; preds = %54
  %96 = getelementptr inbounds %"class.glslang::TPoolAllocator", ptr %12, i32 0, i32 5
  %97 = load ptr, ptr %96, align 8
  %98 = icmp ne ptr %97, null
  br i1 %98, label %99, label %107

99:                                               ; preds = %95
  %100 = getelementptr inbounds %"class.glslang::TPoolAllocator", ptr %12, i32 0, i32 5
  %101 = load ptr, ptr %100, align 8
  store ptr %101, ptr %10, align 8
  %102 = getelementptr inbounds %"class.glslang::TPoolAllocator", ptr %12, i32 0, i32 5
  %103 = load ptr, ptr %102, align 8
  %104 = getelementptr inbounds %"struct.glslang::TPoolAllocator::tHeader", ptr %103, i32 0, i32 0
  %105 = load ptr, ptr %104, align 8
  %106 = getelementptr inbounds %"class.glslang::TPoolAllocator", ptr %12, i32 0, i32 5
  store ptr %105, ptr %106, align 8
  br label %115

107:                                              ; preds = %95
  %108 = getelementptr inbounds %"class.glslang::TPoolAllocator", ptr %12, i32 0, i32 0
  %109 = load i64, ptr %108, align 8
  %110 = call noalias noundef nonnull ptr @_Znam(i64 noundef %109) #8
  store ptr %110, ptr %10, align 8
  %111 = load ptr, ptr %10, align 8
  %112 = icmp eq ptr %111, null
  br i1 %112, label %113, label %114

113:                                              ; preds = %107
  store ptr null, ptr %3, align 8
  br label %143

114:                                              ; preds = %107
  br label %115

115:                                              ; preds = %114, %99
  %116 = load ptr, ptr %10, align 8
  %117 = getelementptr inbounds %"class.glslang::TPoolAllocator", ptr %12, i32 0, i32 6
  %118 = load ptr, ptr %117, align 8
  call void @_ZN7glslang14TPoolAllocator7tHeaderC2EPS1_m(ptr noundef nonnull align 8 dereferenceable(16) %116, ptr noundef %118, i64 noundef 1)
  %119 = load ptr, ptr %10, align 8
  %120 = getelementptr inbounds %"class.glslang::TPoolAllocator", ptr %12, i32 0, i32 6
  store ptr %119, ptr %120, align 8
  %121 = getelementptr inbounds %"class.glslang::TPoolAllocator", ptr %12, i32 0, i32 6
  %122 = load ptr, ptr %121, align 8
  %123 = getelementptr inbounds %"class.glslang::TPoolAllocator", ptr %12, i32 0, i32 3
  %124 = load i64, ptr %123, align 8
  %125 = getelementptr inbounds i8, ptr %122, i64 %124
  store ptr %125, ptr %11, align 8
  %126 = getelementptr inbounds %"class.glslang::TPoolAllocator", ptr %12, i32 0, i32 3
  %127 = load i64, ptr %126, align 8
  %128 = load i64, ptr %6, align 8
  %129 = add i64 %127, %128
  %130 = getelementptr inbounds %"class.glslang::TPoolAllocator", ptr %12, i32 0, i32 2
  %131 = load i64, ptr %130, align 8
  %132 = add i64 %129, %131
  %133 = getelementptr inbounds %"class.glslang::TPoolAllocator", ptr %12, i32 0, i32 2
  %134 = load i64, ptr %133, align 8
  %135 = xor i64 %134, -1
  %136 = and i64 %132, %135
  %137 = getelementptr inbounds %"class.glslang::TPoolAllocator", ptr %12, i32 0, i32 4
  store i64 %136, ptr %137, align 8
  %138 = getelementptr inbounds %"class.glslang::TPoolAllocator", ptr %12, i32 0, i32 6
  %139 = load ptr, ptr %138, align 8
  %140 = load ptr, ptr %11, align 8
  %141 = load i64, ptr %5, align 8
  %142 = call noundef ptr @_ZN7glslang14TPoolAllocator20initializeAllocationEPNS0_7tHeaderEPhm(ptr noundef nonnull align 8 dereferenceable(96) %12, ptr noundef %139, ptr noundef %140, i64 noundef %141)
  store ptr %142, ptr %3, align 8
  br label %143

143:                                              ; preds = %115, %113, %72, %71, %29
  %144 = load ptr, ptr %3, align 8
  ret ptr %144
}