; Function Attrs: mustprogress nounwind uwtable
define noundef ptr @_ZN7glslang14TPoolAllocator8allocateEm(ptr nocapture noundef nonnull align 8 dereferenceable(96) %0, i64 noundef %1) local_unnamed_addr #0 align 2 {
  %3 = getelementptr inbounds i8, ptr %0, i64 80
  %4 = load i32, ptr %3, align 8
  %5 = add nsw i32 %4, 1
  store i32 %5, ptr %3, align 8
  %6 = getelementptr inbounds i8, ptr %0, i64 88
  %7 = load i64, ptr %6, align 8
  %8 = add i64 %7, %1
  store i64 %8, ptr %6, align 8
  %9 = getelementptr inbounds i8, ptr %0, i64 32
  %10 = load i64, ptr %9, align 8
  %11 = add i64 %10, %1
  %12 = load i64, ptr %0, align 8
  %.not = icmp ugt i64 %11, %12
  br i1 %.not, label %22, label %13

13:                                               ; preds = %2
  %14 = getelementptr inbounds i8, ptr %0, i64 48
  %15 = load ptr, ptr %14, align 8
  %16 = getelementptr inbounds i8, ptr %15, i64 %10
  %17 = getelementptr inbounds i8, ptr %0, i64 16
  %18 = load i64, ptr %17, align 8
  %19 = add i64 %18, %11
  %20 = xor i64 %18, -1
  %21 = and i64 %19, %20
  store i64 %21, ptr %9, align 8
  br label %57

22:                                               ; preds = %2
  %23 = getelementptr inbounds i8, ptr %0, i64 24
  %24 = load i64, ptr %23, align 8
  %25 = add i64 %24, %1
  %26 = icmp ugt i64 %25, %12
  br i1 %26, label %27, label %38

27:                                               ; preds = %22
  %28 = tail call noalias noundef nonnull ptr @_Znam(i64 noundef %25) #12
  %29 = getelementptr inbounds i8, ptr %0, i64 48
  %30 = load ptr, ptr %29, align 8
  %31 = add i64 %12, -1
  %32 = add i64 %31, %25
  %33 = udiv i64 %32, %12
  store ptr %30, ptr %28, align 8
  %34 = getelementptr inbounds i8, ptr %28, i64 8
  store i64 %33, ptr %34, align 8
  store ptr %28, ptr %29, align 8
  store i64 %12, ptr %9, align 8
  %35 = ptrtoint ptr %28 to i64
  %36 = add i64 %24, %35
  %37 = inttoptr i64 %36 to ptr
  br label %57

38:                                               ; preds = %22
  %39 = getelementptr inbounds i8, ptr %0, i64 40
  %40 = load ptr, ptr %39, align 8
  %.not26 = icmp eq ptr %40, null
  br i1 %.not26, label %43, label %41

41:                                               ; preds = %38
  %42 = load ptr, ptr %40, align 8
  store ptr %42, ptr %39, align 8
  br label %45

43:                                               ; preds = %38
  %44 = tail call noalias noundef nonnull ptr @_Znam(i64 noundef %12) #12
  br label %45

45:                                               ; preds = %43, %41
  %.021 = phi ptr [ %40, %41 ], [ %44, %43 ]
  %46 = getelementptr inbounds i8, ptr %0, i64 48
  %47 = load ptr, ptr %46, align 8
  store ptr %47, ptr %.021, align 8
  %48 = getelementptr inbounds i8, ptr %.021, i64 8
  store i64 1, ptr %48, align 8
  store ptr %.021, ptr %46, align 8
  %49 = load i64, ptr %23, align 8
  %50 = getelementptr inbounds i8, ptr %.021, i64 %49
  %51 = add i64 %49, %1
  %52 = getelementptr inbounds i8, ptr %0, i64 16
  %53 = load i64, ptr %52, align 8
  %54 = add i64 %51, %53
  %55 = xor i64 %53, -1
  %56 = and i64 %54, %55
  store i64 %56, ptr %9, align 8
  br label %57

57:                                               ; preds = %45, %27, %13
  %.0 = phi ptr [ %16, %13 ], [ %37, %27 ], [ %50, %45 ]
  ret ptr %.0
}